target datalayout = "e-m:e-p270:32:32-p271:32:32-p272:64:64-i64:64-i128:128-f80:128-n8:16:32:64-S128"
target triple = "x86_64-unknown-linux-gnu"

%"class.llvh::DenseMap.0" = type <{ ptr, i32, i32, i32, [4 x i8] }>
%"class.llvh::SmallVectorBase" = type { ptr, i32, i32 }
%"class.hermes::hbc::HBCISel" = type { ptr, ptr, ptr, ptr, ptr, %"class.llvh::DenseMap.22", %"class.llvh::DenseSet", %"class.llvh::SmallVector.28", %"class.llvh::DenseMap.0", %"class.llvh::DenseMap.34", ptr, %"class.llvh::DenseMap.37", %"class.hermes::Identifier", i8, i8, [6 x i8], %"class.llvh::DenseMap.40", %"class.llvh::DenseMap.40", ptr, ptr }
%"class.llvh::DenseMap.22" = type <{ ptr, i32, i32, i32, [4 x i8] }>
%"class.llvh::DenseSet" = type { %"class.llvh::detail::DenseSetImpl" }
%"class.llvh::detail::DenseSetImpl" = type { %"class.llvh::DenseMap.25" }
%"class.llvh::DenseMap.25" = type <{ ptr, i32, i32, i32, [4 x i8] }>
%"class.llvh::SmallVector.28" = type { %"class.llvh::SmallVectorImpl.29", %"struct.llvh::SmallVectorStorage.32" }
%"class.llvh::SmallVectorImpl.29" = type { %"class.llvh::SmallVectorTemplateBase.30" }
%"class.llvh::SmallVectorTemplateBase.30" = type { %"class.llvh::SmallVectorTemplateCommon.31" }
%"class.llvh::SmallVectorTemplateCommon.31" = type { %"class.llvh::SmallVectorBase" }
%"struct.llvh::SmallVectorStorage.32" = type { [8 x %"struct.llvh::AlignedCharArrayUnion.33"] }
%"struct.llvh::AlignedCharArrayUnion.33" = type { %"struct.llvh::AlignedCharArray.21" }
%"struct.llvh::AlignedCharArray.21" = type { [16 x i8] }
%"class.llvh::DenseMap.34" = type <{ ptr, i32, i32, i32, [4 x i8] }>
%"class.llvh::DenseMap.37" = type <{ ptr, i32, i32, i32, [4 x i8] }>
%"class.hermes::Identifier" = type { ptr }
%"class.llvh::DenseMap.40" = type <{ ptr, i32, i32, i32, [4 x i8] }>

; Function Attrs: mustprogress nounwind uwtable
define hidden void @_ZN6hermes3hbc7HBCISel15emitMovIfNeededEll(ptr noundef nonnull align 8 dereferenceable(392) %this, i64 noundef %dest, i64 noundef %src) #0 align 2 {
entry:
  %this.addr = alloca ptr, align 8
  %dest.addr = alloca i64, align 8
  %src.addr = alloca i64, align 8
  store ptr %this, ptr %this.addr, align 8
  store i64 %dest, ptr %dest.addr, align 8
  store i64 %src, ptr %src.addr, align 8
  %this1 = load ptr, ptr %this.addr, align 8
  %0 = load i64, ptr %dest.addr, align 8
  %1 = load i64, ptr %src.addr, align 8
  %cmp = icmp eq i64 %0, %1
  br i1 %cmp, label %if.then, label %if.end

if.then:                                          ; preds = %entry
  br label %if.end7

if.end:                                           ; preds = %entry
  %2 = load i64, ptr %dest.addr, align 8
  %cmp2 = icmp sle i64 %2, 255
  br i1 %cmp2, label %land.lhs.true, label %if.else

land.lhs.true:                                    ; preds = %if.end
  %3 = load i64, ptr %src.addr, align 8
  %cmp3 = icmp sle i64 %3, 255
  br i1 %cmp3, label %if.then4, label %if.else

if.then4:                                         ; preds = %land.lhs.true
  %BCFGen_ = getelementptr inbounds %"class.hermes::hbc::HBCISel", ptr %this1, i32 0, i32 1
  %4 = load ptr, ptr %BCFGen_, align 8
  %5 = load i64, ptr %dest.addr, align 8
  %6 = load i64, ptr %src.addr, align 8
  %call = call noundef i32 @_ZN6hermes3hbc28BytecodeInstructionGenerator7emitMovEll(ptr noundef nonnull align 8 dereferenceable(25) %4, i64 noundef %5, i64 noundef %6)
  br label %if.end7

if.else:                                          ; preds = %land.lhs.true, %if.end
  %BCFGen_5 = getelementptr inbounds %"class.hermes::hbc::HBCISel", ptr %this1, i32 0, i32 1
  %7 = load ptr, ptr %BCFGen_5, align 8
  %8 = load i64, ptr %dest.addr, align 8
  %9 = load i64, ptr %src.addr, align 8
  %call6 = call noundef i32 @_ZN6hermes3hbc28BytecodeInstructionGenerator11emitMovLongEll(ptr noundef nonnull align 8 dereferenceable(25) %7, i64 noundef %8, i64 noundef %9)
  br label %if.end7

if.end7:                                          ; preds = %if.else, %if.then4, %if.then
  ret void
}