; Function Attrs: mustprogress nounwind uwtable
define hidden void @_ZN6hermes3hbc7HBCISel15emitMovIfNeededEll(ptr nocapture noundef nonnull readonly align 8 dereferenceable(392) %this, i64 noundef %dest, i64 noundef %src) local_unnamed_addr #0 align 2 {
entry:
  %cmp = icmp eq i64 %dest, %src
  br i1 %cmp, label %if.end7, label %if.end

if.end:                                           ; preds = %entry
  %cmp2 = icmp slt i64 %dest, 256
  %cmp3 = icmp slt i64 %src, 256
  %or.cond = and i1 %cmp2, %cmp3
  %BCFGen_ = getelementptr inbounds i8, ptr %this, i64 8
  %0 = load ptr, ptr %BCFGen_, align 8
  br i1 %or.cond, label %if.then4, label %if.else

if.then4:                                         ; preds = %if.end
  %call = tail call noundef i32 @_ZN6hermes3hbc28BytecodeInstructionGenerator7emitMovEll(ptr noundef nonnull align 8 dereferenceable(25) %0, i64 noundef %dest, i64 noundef %src)
  br label %if.end7

if.else:                                          ; preds = %if.end
  %call6 = tail call noundef i32 @_ZN6hermes3hbc28BytecodeInstructionGenerator11emitMovLongEll(ptr noundef nonnull align 8 dereferenceable(25) %0, i64 noundef %dest, i64 noundef %src)
  br label %if.end7

if.end7:                                          ; preds = %entry, %if.else, %if.then4
  ret void
}